target datalayout = "e-m:e-p270:32:32-p271:32:32-p272:64:64-i64:64-i128:128-f80:128-n8:16:32:64-S128"
target triple = "x86_64-pc-linux-gnu"

%"struct.ozz::span.1" = type { ptr, i64 }
%"struct.ozz::span.3" = type { ptr, i64 }
%"class.ozz::animation::SamplingJob::Context" = type { ptr, float, i32, ptr, %"struct.ozz::animation::SamplingJob::Context::Cache", %"struct.ozz::animation::SamplingJob::Context::Cache", %"struct.ozz::animation::SamplingJob::Context::Cache", %"struct.ozz::span.6", %"struct.ozz::span.7", %"struct.ozz::span.6" }
%"struct.ozz::animation::SamplingJob::Context::Cache" = type <{ %"struct.ozz::span.3", %"struct.ozz::span.1", i32, [4 x i8] }>
%"struct.ozz::span.7" = type { ptr, i64 }
%"struct.ozz::span.6" = type { ptr, i64 }

; Function Attrs: mustprogress nounwind uwtable
define linkonce_odr dso_local void @_ZN3ozz4spanIhEC2Ev(ptr noundef nonnull align 8 dereferenceable(16) %0) unnamed_addr #2 comdat align 2 {
  %2 = alloca ptr, align 8
  store ptr %0, ptr %2, align 8, !tbaa !119
  %3 = load ptr, ptr %2, align 8
  %4 = getelementptr inbounds nuw %"struct.ozz::span.1", ptr %3, i32 0, i32 0
  store ptr null, ptr %4, align 8, !tbaa !121
  %5 = getelementptr inbounds nuw %"struct.ozz::span.1", ptr %3, i32 0, i32 1
  store i64 0, ptr %5, align 8, !tbaa !122
  ret void
}

; Function Attrs: mustprogress nounwind uwtable
define linkonce_odr dso_local void @_ZN3ozz4spanIjEC2Ev(ptr noundef nonnull align 8 dereferenceable(16) %0) unnamed_addr #2 comdat align 2 {
  %2 = alloca ptr, align 8
  store ptr %0, ptr %2, align 8, !tbaa !81
  %3 = load ptr, ptr %2, align 8
  %4 = getelementptr inbounds nuw %"struct.ozz::span.3", ptr %3, i32 0, i32 0
  store ptr null, ptr %4, align 8, !tbaa !123
  %5 = getelementptr inbounds nuw %"struct.ozz::span.3", ptr %3, i32 0, i32 1
  store i64 0, ptr %5, align 8, !tbaa !124
  ret void
}

; Function Attrs: mustprogress nounwind uwtable
define dso_local void @_ZN3ozz9animation11SamplingJob7Context10InvalidateEv(ptr noundef nonnull align 8 dereferenceable(192) %0) #2 align 2 {
  %2 = alloca ptr, align 8
  store ptr %0, ptr %2, align 8, !tbaa !43
  %3 = load ptr, ptr %2, align 8
  %4 = getelementptr inbounds nuw %"class.ozz::animation::SamplingJob::Context", ptr %3, i32 0, i32 0
  store ptr null, ptr %4, align 8, !tbaa !57
  %5 = getelementptr inbounds nuw %"class.ozz::animation::SamplingJob::Context", ptr %3, i32 0, i32 1
  store float 0.000000e+00, ptr %5, align 8, !tbaa !58
  %6 = getelementptr inbounds nuw %"class.ozz::animation::SamplingJob::Context", ptr %3, i32 0, i32 4
  %7 = getelementptr inbounds nuw %"struct.ozz::animation::SamplingJob::Context::Cache", ptr %6, i32 0, i32 2
  store i32 0, ptr %7, align 8, !tbaa !112
  %8 = getelementptr inbounds nuw %"class.ozz::animation::SamplingJob::Context", ptr %3, i32 0, i32 5
  %9 = getelementptr inbounds nuw %"struct.ozz::animation::SamplingJob::Context::Cache", ptr %8, i32 0, i32 2
  store i32 0, ptr %9, align 8, !tbaa !113
  %10 = getelementptr inbounds nuw %"class.ozz::animation::SamplingJob::Context", ptr %3, i32 0, i32 6
  %11 = getelementptr inbounds nuw %"struct.ozz::animation::SamplingJob::Context::Cache", ptr %10, i32 0, i32 2
  store i32 0, ptr %11, align 8, !tbaa !114
  ret void
}

; Function Attrs: mustprogress nounwind uwtable
define linkonce_odr dso_local void @_ZN3ozz4spanINS_9animation8internal19InterpSoaQuaternionEEC2Ev(ptr noundef nonnull align 8 dereferenceable(16) %0) unnamed_addr #2 comdat align 2 {
  %2 = alloca ptr, align 8
  store ptr %0, ptr %2, align 8, !tbaa !90
  %3 = load ptr, ptr %2, align 8
  %4 = getelementptr inbounds nuw %"struct.ozz::span.7", ptr %3, i32 0, i32 0
  store ptr null, ptr %4, align 8, !tbaa !109
  %5 = getelementptr inbounds nuw %"struct.ozz::span.7", ptr %3, i32 0, i32 1
  store i64 0, ptr %5, align 8, !tbaa !110
  ret void
}

; Function Attrs: mustprogress nounwind uwtable
define linkonce_odr dso_local void @_ZN3ozz4spanINS_9animation8internal15InterpSoaFloat3EEC2Ev(ptr noundef nonnull align 8 dereferenceable(16) %0) unnamed_addr #2 comdat align 2 {
  %2 = alloca ptr, align 8
  store ptr %0, ptr %2, align 8, !tbaa !77
  %3 = load ptr, ptr %2, align 8
  %4 = getelementptr inbounds nuw %"struct.ozz::span.6", ptr %3, i32 0, i32 0
  store ptr null, ptr %4, align 8, !tbaa !107
  %5 = getelementptr inbounds nuw %"struct.ozz::span.6", ptr %3, i32 0, i32 1
  store i64 0, ptr %5, align 8, !tbaa !108
  ret void
}

; Function Attrs: inlinehint mustprogress uwtable
define linkonce_odr dso_local void @_ZN3ozz9animation11SamplingJob7Context5CacheC2Ev(ptr noundef nonnull align 8 dereferenceable(36) %0) unnamed_addr #6 comdat align 2 {
  %2 = alloca ptr, align 8
  store ptr %0, ptr %2, align 8, !tbaa !61
  %3 = load ptr, ptr %2, align 8
  %4 = getelementptr inbounds nuw %"struct.ozz::animation::SamplingJob::Context::Cache", ptr %3, i32 0, i32 0
  call void @_ZN3ozz4spanIjEC2Ev(ptr noundef nonnull align 8 dereferenceable(16) %4)
  %5 = getelementptr inbounds nuw %"struct.ozz::animation::SamplingJob::Context::Cache", ptr %3, i32 0, i32 1
  call void @_ZN3ozz4spanIhEC2Ev(ptr noundef nonnull align 8 dereferenceable(16) %5)
  ret void
}

; Function Attrs: mustprogress uwtable
define dso_local void @_ZN3ozz9animation11SamplingJob7ContextC2Ev(ptr noundef nonnull align 8 dereferenceable(192) %0) unnamed_addr #0 align 2 {
  %2 = alloca ptr, align 8
  store ptr %0, ptr %2, align 8, !tbaa !43
  %3 = load ptr, ptr %2, align 8
  %4 = getelementptr inbounds nuw %"class.ozz::animation::SamplingJob::Context", ptr %3, i32 0, i32 2
  store i32 0, ptr %4, align 4, !tbaa !44
  %5 = getelementptr inbounds nuw %"class.ozz::animation::SamplingJob::Context", ptr %3, i32 0, i32 3
  store ptr null, ptr %5, align 8, !tbaa !111
  %6 = getelementptr inbounds nuw %"class.ozz::animation::SamplingJob::Context", ptr %3, i32 0, i32 4
  call void @_ZN3ozz9animation11SamplingJob7Context5CacheC2Ev(ptr noundef nonnull align 8 dereferenceable(36) %6)
  %7 = getelementptr inbounds nuw %"class.ozz::animation::SamplingJob::Context", ptr %3, i32 0, i32 5
  call void @_ZN3ozz9animation11SamplingJob7Context5CacheC2Ev(ptr noundef nonnull align 8 dereferenceable(36) %7)
  %8 = getelementptr inbounds nuw %"class.ozz::animation::SamplingJob::Context", ptr %3, i32 0, i32 6
  call void @_ZN3ozz9animation11SamplingJob7Context5CacheC2Ev(ptr noundef nonnull align 8 dereferenceable(36) %8)
  %9 = getelementptr inbounds nuw %"class.ozz::animation::SamplingJob::Context", ptr %3, i32 0, i32 7
  call void @_ZN3ozz4spanINS_9animation8internal15InterpSoaFloat3EEC2Ev(ptr noundef nonnull align 8 dereferenceable(16) %9)
  %10 = getelementptr inbounds nuw %"class.ozz::animation::SamplingJob::Context", ptr %3, i32 0, i32 8
  call void @_ZN3ozz4spanINS_9animation8internal19InterpSoaQuaternionEEC2Ev(ptr noundef nonnull align 8 dereferenceable(16) %10)
  %11 = getelementptr inbounds nuw %"class.ozz::animation::SamplingJob::Context", ptr %3, i32 0, i32 9
  call void @_ZN3ozz4spanINS_9animation8internal15InterpSoaFloat3EEC2Ev(ptr noundef nonnull align 8 dereferenceable(16) %11)
  call void @_ZN3ozz9animation11SamplingJob7Context10InvalidateEv(ptr noundef nonnull align 8 dereferenceable(192) %3)
  ret void
}